#include <math.h>
#include <stdio.h>
#include <stdlib.h>
#include <string.h>

int main(){
	int i,k,j,p=0;
	char zfc[101];
	gets(zfc);
	k=strlen(zfc);
	for(i=0;i<k;i++){
		if((zfc[i]==' ')&&(zfc[i+1]==' ')){
			for(j=i;j<k-1;j++){
				zfc[j]=zfc[j+1];
			}
			i--;
			p++;
		}
	}
	zfc[k-p]=0;

	printf("%s",zfc);
	return 0;
}
